target datalayout = "e-m:e-p270:32:32-p271:32:32-p272:64:64-i64:64-i128:128-f80:128-n8:16:32:64-S128"
target triple = "x86_64-pc-linux-gnu"

%struct._zend_executor_globals = type { %struct._zval_struct, %struct._zval_struct, [32 x ptr], ptr, ptr, %struct._zend_array, %struct._zend_array, ptr, i32, i32, ptr, ptr, ptr, ptr, ptr, ptr, i64, ptr, ptr, i32, i32, i64, i32, i32, i32, i8, i8, %struct.zend_atomic_bool_s, %struct.zend_atomic_bool_s, ptr, i64, ptr, ptr, %struct._zend_array, %struct._zend_array, i32, i8, %struct._zval_struct, %struct._zval_struct, %struct._zend_stack, %struct._zend_stack, %struct._zend_stack, ptr, i32, i32, i64, ptr, ptr, ptr, %struct._zend_objects_store, ptr, ptr, ptr, [3 x %struct._zend_op], ptr, i8, i8, i64, i32, i32, ptr, [16 x %struct._HashTableIterator], ptr, %union._zend_function, %struct._zend_op, %struct._zend_array, i64, %struct.zend_get_gc_buffer, ptr, ptr, ptr, i64, i8, i32, ptr, ptr, i64, %struct._zend_call_stack, i64, i64, [6 x ptr] }
%struct.zend_atomic_bool_s = type { i8 }
%struct._zval_struct = type { %union._zend_value, %union.anon, %union.anon.2 }
%union._zend_value = type { i64 }
%union.anon = type { i32 }
%union.anon.2 = type { i32 }
%struct._zend_stack = type { i32, i32, i32, ptr }
%struct._zend_objects_store = type { ptr, i32, i32, i32 }
%struct._HashTableIterator = type { ptr, i32, i32 }
%union._zend_function = type { %struct._zend_op_array }
%struct._zend_op_array = type { i8, [3 x i8], i32, ptr, ptr, ptr, i32, i32, ptr, ptr, ptr, ptr, i32, i32, i32, i32, ptr, ptr, ptr, ptr, ptr, i32, i32, ptr, ptr, ptr, i32, i32, i32, i32, ptr, ptr, [6 x ptr] }
%struct._zend_op = type { ptr, %union._znode_op, %union._znode_op, %union._znode_op, i32, i32, i8, i8, i8, i8 }
%union._znode_op = type { i32 }
%struct._zend_array = type { %struct._zend_refcounted_h, %union.anon.4, i32, %union.anon.6, i32, i32, i32, i32, i64, ptr }
%struct._zend_refcounted_h = type { i32, %union.anon.3 }
%union.anon.3 = type { i32 }
%union.anon.4 = type { i32 }
%union.anon.6 = type { ptr }
%struct.zend_get_gc_buffer = type { ptr, ptr, ptr }
%struct._zend_call_stack = type { ptr, i64 }
%struct._zend_execute_data = type { ptr, ptr, ptr, ptr, %struct._zval_struct, ptr, ptr, ptr, ptr }
%struct._ze_xmlwriter_object = type { ptr, ptr, %struct._zend_object }
%struct._zend_object = type { %struct._zend_refcounted_h, i32, ptr, ptr, ptr, [1 x %struct._zval_struct] }

@xmlwriter_class_entry_ce = internal global ptr null, align 8
@executor_globals = external global %struct._zend_executor_globals, align 8
@.str.4 = private unnamed_addr constant [42 x i8] c"Invalid or uninitialized XMLWriter object\00", align 1
@.str.14 = private unnamed_addr constant [2 x i8] c"O\00", align 1

; Function Attrs: nounwind uwtable
define internal ptr @php_xmlwriter_fetch_object(ptr noundef %0) #0 {
  %2 = alloca ptr, align 8
  store ptr %0, ptr %2, align 8
  %3 = load ptr, ptr %2, align 8
  %4 = getelementptr inbounds i8, ptr %3, i64 -16
  ret ptr %4
}

; Function Attrs: nounwind uwtable
define internal void @php_xmlwriter_end(ptr noundef %0, ptr noundef %1, ptr noundef %2) #0 {
  %4 = alloca ptr, align 8
  %5 = alloca ptr, align 8
  %6 = alloca ptr, align 8
  %7 = alloca ptr, align 8
  %8 = alloca ptr, align 8
  %9 = alloca i32, align 4
  %10 = alloca ptr, align 8
  %11 = alloca ptr, align 8
  store ptr %0, ptr %5, align 8
  store ptr %1, ptr %6, align 8
  store ptr %2, ptr %7, align 8
  %12 = load ptr, ptr %5, align 8
  %13 = getelementptr inbounds %struct._zend_execute_data, ptr %12, i32 0, i32 4
  %14 = getelementptr inbounds %struct._zval_struct, ptr %13, i32 0, i32 2
  %15 = load i32, ptr %14, align 4
  %16 = load ptr, ptr %5, align 8
  %17 = getelementptr inbounds %struct._zend_execute_data, ptr %16, i32 0, i32 4
  store ptr %17, ptr %4, align 8
  %18 = load ptr, ptr %4, align 8
  %19 = getelementptr inbounds %struct._zval_struct, ptr %18, i32 0, i32 1
  %20 = load i8, ptr %19, align 8
  %21 = zext i8 %20 to i32
  %22 = icmp eq i32 %21, 8
  br i1 %22, label %23, label %26

23:                                               ; preds = %3
  %24 = load ptr, ptr %5, align 8
  %25 = getelementptr inbounds %struct._zend_execute_data, ptr %24, i32 0, i32 4
  br label %27

26:                                               ; preds = %3
  br label %27

27:                                               ; preds = %26, %23
  %28 = phi ptr [ %25, %23 ], [ null, %26 ]
  %29 = load ptr, ptr @xmlwriter_class_entry_ce, align 8
  %30 = call i32 (i32, ptr, ptr, ...) @zend_parse_method_parameters(i32 noundef %15, ptr noundef %28, ptr noundef @.str.14, ptr noundef %10, ptr noundef %29)
  %31 = icmp eq i32 %30, -1
  br i1 %31, label %32, label %37

32:                                               ; preds = %27
  br label %33

33:                                               ; preds = %32
  %34 = load ptr, ptr getelementptr inbounds (%struct._zend_executor_globals, ptr @executor_globals, i32 0, i32 50), align 8
  %35 = icmp ne ptr %34, null
  call void @llvm.assume(i1 %35)
  br label %64

36:                                               ; No predecessors!
  br label %37

37:                                               ; preds = %36, %27
  %38 = load ptr, ptr %10, align 8
  %39 = getelementptr inbounds %struct._zval_struct, ptr %38, i32 0, i32 0
  %40 = load ptr, ptr %39, align 8
  %41 = call ptr @php_xmlwriter_fetch_object(ptr noundef %40)
  store ptr %41, ptr %11, align 8
  %42 = load ptr, ptr %11, align 8
  %43 = getelementptr inbounds %struct._ze_xmlwriter_object, ptr %42, i32 0, i32 0
  %44 = load ptr, ptr %43, align 8
  store ptr %44, ptr %8, align 8
  %45 = load ptr, ptr %8, align 8
  %46 = icmp ne ptr %45, null
  br i1 %46, label %52, label %47

47:                                               ; preds = %37
  call void (ptr, ptr, ...) @zend_throw_error(ptr noundef null, ptr noundef @.str.4)
  br label %48

48:                                               ; preds = %47
  %49 = load ptr, ptr getelementptr inbounds (%struct._zend_executor_globals, ptr @executor_globals, i32 0, i32 50), align 8
  %50 = icmp ne ptr %49, null
  call void @llvm.assume(i1 %50)
  br label %64

51:                                               ; No predecessors!
  br label %52

52:                                               ; preds = %51, %37
  %53 = load ptr, ptr %7, align 8
  %54 = load ptr, ptr %8, align 8
  %55 = call i32 %53(ptr noundef %54)
  store i32 %55, ptr %9, align 4
  br label %56

56:                                               ; preds = %52
  br label %57

57:                                               ; preds = %56
  %58 = load i32, ptr %9, align 4
  %59 = icmp ne i32 %58, -1
  %60 = select i1 %59, i32 3, i32 2
  %61 = load ptr, ptr %6, align 8
  %62 = getelementptr inbounds %struct._zval_struct, ptr %61, i32 0, i32 1
  store i32 %60, ptr %62, align 8
  br label %63

63:                                               ; preds = %57
  br label %64

64:                                               ; preds = %63, %48, %33
  ret void
}

; Function Attrs: nounwind uwtable
define hidden void @zif_xmlwriter_end_dtd_attlist(ptr noundef %0, ptr noundef %1) #0 {
  %3 = alloca ptr, align 8
  %4 = alloca ptr, align 8
  store ptr %0, ptr %3, align 8
  store ptr %1, ptr %4, align 8
  %5 = load ptr, ptr %3, align 8
  %6 = load ptr, ptr %4, align 8
  call void @php_xmlwriter_end(ptr noundef %5, ptr noundef %6, ptr noundef @xmlTextWriterEndDTDAttlist)
  ret void
}